target datalayout = "e-m:e-p270:32:32-p271:32:32-p272:64:64-i64:64-i128:128-f80:128-n8:16:32:64-S128"
target triple = "x86_64-pc-linux-gnu"

; Function Attrs: mustprogress nounwind uwtable
define internal noundef ptr @_ZL14limitedReallocPvS_mm(ptr noundef %0, ptr noundef %1, i64 noundef %2, i64 noundef %3) #1 {
  %5 = alloca ptr, align 8
  %6 = alloca ptr, align 8
  %7 = alloca ptr, align 8
  %8 = alloca i64, align 8
  %9 = alloca i64, align 8
  store ptr %0, ptr %6, align 8
  store ptr %1, ptr %7, align 8
  store i64 %2, ptr %8, align 8
  store i64 %3, ptr %9, align 8
  %10 = load i64, ptr %9, align 8
  %11 = icmp eq i64 %10, 0
  br i1 %11, label %12, label %14

12:                                               ; preds = %4
  %13 = load ptr, ptr %7, align 8
  call void @free(ptr noundef %13) #16
  store ptr null, ptr %5, align 8
  br label %22

14:                                               ; preds = %4
  %15 = load i64, ptr %9, align 8
  %16 = icmp ugt i64 %15, 8388608
  br i1 %16, label %17, label %18

17:                                               ; preds = %14
  store ptr null, ptr %5, align 8
  br label %22

18:                                               ; preds = %14
  %19 = load ptr, ptr %7, align 8
  %20 = load i64, ptr %9, align 8
  %21 = call ptr @realloc(ptr noundef %19, i64 noundef %20) #23
  store ptr %21, ptr %5, align 8
  br label %22

22:                                               ; preds = %18, %17, %12
  %23 = load ptr, ptr %5, align 8
  ret ptr %23
}