; Function Attrs: mustprogress nounwind willreturn memory(argmem: readwrite, inaccessiblemem: readwrite) uwtable
define internal noalias noundef ptr @_ZL14limitedReallocPvS_mm(ptr nocapture readnone %0, ptr nocapture noundef %1, i64 %2, i64 noundef %3) #15 {
  %5 = icmp eq i64 %3, 0
  br i1 %5, label %6, label %7

6:                                                ; preds = %4
  tail call void @free(ptr noundef %1) #35
  br label %11

7:                                                ; preds = %4
  %8 = icmp ugt i64 %3, 8388608
  br i1 %8, label %11, label %9

9:                                                ; preds = %7
  %10 = tail call ptr @realloc(ptr noundef %1, i64 noundef %3) #39
  br label %11

11:                                               ; preds = %7, %9, %6
  %.0 = phi ptr [ null, %6 ], [ %10, %9 ], [ null, %7 ]
  ret ptr %.0
}